Certificate:
    Data:
        Version: 3 (0x2)
        Serial Number: 3 (0x3)
    Signature Algorithm: sha256WithRSAEncryption
        Issuer: C=CN, ST=GuangDong, L=GuangZhou, O=www.sbwml.cn, OU=iPhone, CN=www.sbwml.cn CA/name=OpenVPN/emailAddress=TD-LTE@YUN.COM
        Validity
            Not Before: May 18 08:34:42 2016 GMT
            Not After : May 16 08:34:42 2026 GMT
        Subject: C=CN, ST=GuangDong, L=GuangZhou, O=www.sbwml.cn, OU=iPhone, CN=user02/name=OpenVPN/emailAddress=TD-LTE@YUN.COM
        Subject Public Key Info:
            Public Key Algorithm: rsaEncryption
                Public-Key: (2048 bit)
                Modulus:
                    00:c6:aa:aa:78:3b:3b:ef:c7:4a:07:36:3d:3d:ec:
                    4d:b2:83:8f:44:c2:e7:30:8a:03:25:13:7b:f5:6f:
                    8a:de:c4:65:95:f6:c0:94:74:03:7a:0d:d6:75:b2:
                    ac:ca:4e:83:38:ff:2c:33:73:a3:17:03:bb:69:c6:
                    2e:24:bb:4e:a7:3b:f1:26:0c:36:9f:d4:df:1c:38:
                    0e:d3:7a:86:5a:ec:e8:22:7a:8f:37:4d:ce:18:a3:
                    20:9d:e7:fa:59:82:e3:b7:41:fc:9d:37:7c:5c:93:
                    39:31:09:82:4b:92:16:d1:8e:74:ef:93:95:fd:55:
                    59:15:09:5e:d3:37:79:3f:29:51:47:bb:48:84:aa:
                    6d:e0:02:ba:d2:2e:a2:3f:97:0c:e2:3e:ca:cc:16:
                    1a:3e:28:be:03:2e:56:a6:17:d4:62:d6:e8:a9:f0:
                    5d:2c:62:ea:9c:e5:69:16:49:ca:b4:96:ba:6d:c4:
                    16:ab:22:28:d6:3f:39:d3:b1:a4:10:e2:97:0a:89:
                    02:4b:2b:9b:25:87:d5:50:79:47:2c:58:23:d0:c4:
                    f3:fe:a5:9e:ce:86:84:df:be:3a:c0:77:85:9c:d0:
                    bd:d2:e2:1e:43:8a:99:43:75:67:3c:df:9b:7c:54:
                    ec:68:3f:0f:11:41:69:18:a1:e1:97:0f:74:dd:45:
                    75:6f
                Exponent: 65537 (0x10001)
        X509v3 extensions:
            X509v3 Basic Constraints: 
                CA:FALSE
            Netscape Comment: 
                Easy-RSA Generated Certificate
            X509v3 Subject Key Identifier: 
                22:1D:DC:60:82:7C:79:48:B1:E4:43:54:BE:C8:39:FE:4B:73:5B:5A
            X509v3 Authority Key Identifier: 
                keyid:EC:76:10:14:68:1F:88:17:33:D3:6F:35:5A:16:C6:5C:A5:FA:A4:F5
                DirName:/C=CN/ST=GuangDong/L=GuangZhou/O=www.sbwml.cn/OU=iPhone/CN=www.sbwml.cn CA/name=OpenVPN/emailAddress=TD-LTE@YUN.COM
                serial:85:00:E6:84:C9:ED:42:B2

            X509v3 Extended Key Usage: 
                TLS Web Client Authentication
            X509v3 Key Usage: 
                Digital Signature
    Signature Algorithm: sha256WithRSAEncryption
         09:84:48:07:e7:00:b8:6b:89:25:80:35:22:ec:7e:bc:e8:0a:
         b8:b1:2e:50:63:5a:77:e4:f5:12:a5:53:65:7e:ab:e1:80:c9:
         9d:5f:0c:bf:ee:83:ed:57:67:df:3b:76:ea:a6:02:b5:10:c9:
         27:b5:c0:68:aa:1e:af:07:80:2c:86:64:61:74:21:6f:02:e1:
         ee:40:66:a2:5f:b9:89:48:4b:a7:85:c6:cd:ee:da:ed:32:a3:
         cd:97:eb:15:be:77:20:fe:64:df:38:21:56:76:1b:5d:8f:fc:
         5c:b4:85:db:c5:5b:d2:32:24:77:60:2d:15:e5:7e:24:46:60:
         68:32:b0:7b:8f:2d:21:b9:e3:9a:40:69:07:a5:24:c9:45:a0:
         c8:1f:aa:0e:70:c6:83:17:65:27:f9:2b:21:35:ee:ec:d3:06:
         57:10:76:9f:60:ca:73:ea:db:a2:12:8e:1e:35:23:07:48:34:
         d5:57:2e:ee:7a:1c:b9:26:33:eb:1e:41:8a:f8:9e:e0:4e:5e:
         a6:b9:d5:fd:fc:e3:53:7e:b1:3b:02:91:b6:1d:48:38:c0:02:
         36:76:56:29:5d:8a:01:9f:b7:c6:65:86:9e:dd:3a:72:98:13:
         7f:c4:b9:cf:fa:31:60:5d:1a:35:20:92:26:60:47:bb:16:93:
         de:69:d1:29
-----BEGIN CERTIFICATE-----
MIIFJTCCBA2gAwIBAgIBAzANBgkqhkiG9w0BAQsFADCBqDELMAkGA1UEBhMCQ04x
EjAQBgNVBAgTCUd1YW5nRG9uZzESMBAGA1UEBxMJR3VhbmdaaG91MRUwEwYDVQQK
Ewx3d3cuc2J3bWwuY24xDzANBgNVBAsTBmlQaG9uZTEYMBYGA1UEAxMPd3d3LnNi
d21sLmNuIENBMRAwDgYDVQQpEwdPcGVuVlBOMR0wGwYJKoZIhvcNAQkBFg5URC1M
VEVAWVVOLkNPTTAeFw0xNjA1MTgwODM0NDJaFw0yNjA1MTYwODM0NDJaMIGfMQsw
CQYDVQQGEwJDTjESMBAGA1UECBMJR3VhbmdEb25nMRIwEAYDVQQHEwlHdWFuZ1po
b3UxFTATBgNVBAoTDHd3dy5zYndtbC5jbjEPMA0GA1UECxMGaVBob25lMQ8wDQYD
VQQDEwZ1c2VyMDIxEDAOBgNVBCkTB09wZW5WUE4xHTAbBgkqhkiG9w0BCQEWDlRE
LUxURUBZVU4uQ09NMIIBIjANBgkqhkiG9w0BAQEFAAOCAQ8AMIIBCgKCAQEAxqqq
eDs778dKBzY9PexNsoOPRMLnMIoDJRN79W+K3sRllfbAlHQDeg3WdbKsyk6DOP8s
M3OjFwO7acYuJLtOpzvxJgw2n9TfHDgO03qGWuzoInqPN03OGKMgnef6WYLjt0H8
nTd8XJM5MQmCS5IW0Y5075OV/VVZFQle0zd5PylRR7tIhKpt4AK60i6iP5cM4j7K
zBYaPii+Ay5WphfUYtboqfBdLGLqnOVpFknKtJa6bcQWqyIo1j8507GkEOKXCokC
SyubJYfVUHlHLFgj0MTz/qWezoaE3746wHeFnNC90uIeQ4qZQ3VnPN+bfFTsaD8P
EUFpGKHhlw903UV1bwIDAQABo4IBXzCCAVswCQYDVR0TBAIwADAtBglghkgBhvhC
AQ0EIBYeRWFzeS1SU0EgR2VuZXJhdGVkIENlcnRpZmljYXRlMB0GA1UdDgQWBBQi
Hdxggnx5SLHkQ1S+yDn+S3NbWjCB3QYDVR0jBIHVMIHSgBTsdhAUaB+IFzPTbzVa
FsZcpfqk9aGBrqSBqzCBqDELMAkGA1UEBhMCQ04xEjAQBgNVBAgTCUd1YW5nRG9u
ZzESMBAGA1UEBxMJR3VhbmdaaG91MRUwEwYDVQQKEwx3d3cuc2J3bWwuY24xDzAN
BgNVBAsTBmlQaG9uZTEYMBYGA1UEAxMPd3d3LnNid21sLmNuIENBMRAwDgYDVQQp
EwdPcGVuVlBOMR0wGwYJKoZIhvcNAQkBFg5URC1MVEVAWVVOLkNPTYIJAIUA5oTJ
7UKyMBMGA1UdJQQMMAoGCCsGAQUFBwMCMAsGA1UdDwQEAwIHgDANBgkqhkiG9w0B
AQsFAAOCAQEACYRIB+cAuGuJJYA1Iux+vOgKuLEuUGNad+T1EqVTZX6r4YDJnV8M
v+6D7Vdn3zt26qYCtRDJJ7XAaKoerweALIZkYXQhbwLh7kBmol+5iUhLp4XGze7a
7TKjzZfrFb53IP5k3zghVnYbXY/8XLSF28Vb0jIkd2AtFeV+JEZgaDKwe48tIbnj
mkBpB6UkyUWgyB+qDnDGgxdlJ/krITXu7NMGVxB2n2DKc+rbohKOHjUjB0g01Vcu
7nocuSYz6x5Bivie4E5eprnV/fzjU36xOwKRth1IOMACNnZWKV2KAZ+3xmWGnt06
cpgTf8S5z/oxYF0aNSCSJmBHuxaT3mnRKQ==
-----END CERTIFICATE-----
