Certificate:
    Data:
        Version: 3 (0x2)
        Serial Number: 2 (0x2)
    Signature Algorithm: sha256WithRSAEncryption
        Issuer: C=CN, ST=GuangDong, L=GuangZhou, O=www.sbwml.cn, OU=iPhone, CN=www.sbwml.cn CA/name=OpenVPN/emailAddress=TD-LTE@YUN.COM
        Validity
            Not Before: May 18 07:51:41 2016 GMT
            Not After : May 16 07:51:41 2026 GMT
        Subject: C=CN, ST=GuangDong, L=GuangZhou, O=www.sbwml.cn, OU=iPhone, CN=user01/name=OpenVPN/emailAddress=TD-LTE@YUN.COM
        Subject Public Key Info:
            Public Key Algorithm: rsaEncryption
                Public-Key: (2048 bit)
                Modulus:
                    00:c7:90:55:25:16:95:d0:b6:0f:d1:73:8e:12:8f:
                    a0:6c:81:d2:70:47:95:54:9b:e5:c7:91:1e:3c:b2:
                    54:0b:b1:6d:c2:a9:85:41:9d:e7:10:1d:9f:af:2d:
                    97:f2:9b:b6:0a:f2:b6:f5:f6:da:ae:c4:63:58:ab:
                    42:b8:37:b9:93:ec:94:6b:40:7f:2e:83:41:f5:f0:
                    d6:8c:d8:24:ba:0c:78:13:5a:b1:37:d9:77:ef:b7:
                    44:72:17:ac:d2:3f:26:3c:15:82:14:0a:55:f4:4c:
                    e0:3a:13:39:cb:98:37:a5:4a:2e:c8:87:cf:ac:04:
                    3e:f4:02:81:f4:21:bd:1a:6b:81:62:0f:15:e6:98:
                    12:ad:a5:17:e9:e8:e9:f1:14:9b:79:93:db:0a:41:
                    22:fb:73:eb:42:02:e8:64:f8:d7:26:5e:27:11:ae:
                    30:35:e4:0e:cd:21:92:8a:e5:ef:e5:b8:12:e2:2d:
                    e2:24:c1:ec:03:2e:a6:47:b9:ef:98:22:9a:da:1a:
                    47:d0:6d:8f:e3:25:7b:fe:f1:85:60:e1:c9:e7:2c:
                    42:5a:6b:69:61:af:46:7d:04:bf:c4:2e:7f:1b:dd:
                    ae:46:5e:b2:4d:ac:f8:a7:5e:bb:0e:21:7a:d2:42:
                    00:6b:05:bb:6d:59:59:36:53:30:2c:3c:db:64:e5:
                    0b:dd
                Exponent: 65537 (0x10001)
        X509v3 extensions:
            X509v3 Basic Constraints: 
                CA:FALSE
            Netscape Comment: 
                Easy-RSA Generated Certificate
            X509v3 Subject Key Identifier: 
                9E:40:4A:B2:9D:47:2C:3B:9F:73:41:E7:37:DD:D3:5E:00:10:2D:02
            X509v3 Authority Key Identifier: 
                keyid:EC:76:10:14:68:1F:88:17:33:D3:6F:35:5A:16:C6:5C:A5:FA:A4:F5
                DirName:/C=CN/ST=GuangDong/L=GuangZhou/O=www.sbwml.cn/OU=iPhone/CN=www.sbwml.cn CA/name=OpenVPN/emailAddress=TD-LTE@YUN.COM
                serial:85:00:E6:84:C9:ED:42:B2

            X509v3 Extended Key Usage: 
                TLS Web Client Authentication
            X509v3 Key Usage: 
                Digital Signature
    Signature Algorithm: sha256WithRSAEncryption
         8b:cc:af:d5:a7:58:68:ec:92:2f:4a:11:cc:66:c5:09:bb:df:
         c8:2a:7f:5a:f8:7a:47:99:c1:8e:77:97:b2:53:fd:03:fe:fa:
         0a:00:dd:2a:6f:55:1a:07:fc:0c:36:b1:6c:e7:68:11:f1:bf:
         69:0b:f2:9e:b4:65:17:fb:4d:2b:2f:68:5a:b7:31:17:61:f2:
         d3:fa:52:54:82:c3:ec:9a:ee:27:3c:7c:8a:90:8f:c4:a6:e1:
         b7:61:fd:0c:85:58:d6:d6:19:8e:6e:ef:e4:e2:0a:5a:0c:67:
         6b:d8:bb:d7:a0:14:e0:13:1c:70:89:23:76:0d:e7:38:bc:c8:
         79:ca:52:f2:cf:c3:4c:07:94:58:b5:d7:a8:05:9d:03:ac:1a:
         5b:32:a8:95:2e:f8:52:ad:08:0f:e8:b4:07:3b:be:69:84:17:
         ac:98:61:11:29:5c:b5:a3:a0:5a:29:f0:57:88:d2:f7:d7:5f:
         f3:2e:6a:fc:75:db:cd:0b:a9:1f:ab:8f:36:f4:53:72:82:27:
         72:7c:f4:a0:38:7f:75:74:10:b8:ed:18:f2:af:01:8c:18:0a:
         d4:d7:ad:b7:11:ab:27:ce:50:c2:ed:0c:ad:c1:2b:b5:e9:3d:
         a1:28:28:c9:23:5d:43:43:4f:c7:16:27:25:d3:9d:0b:80:3e:
         1a:e9:e9:d2
-----BEGIN CERTIFICATE-----
MIIFJTCCBA2gAwIBAgIBAjANBgkqhkiG9w0BAQsFADCBqDELMAkGA1UEBhMCQ04x
EjAQBgNVBAgTCUd1YW5nRG9uZzESMBAGA1UEBxMJR3VhbmdaaG91MRUwEwYDVQQK
Ewx3d3cuc2J3bWwuY24xDzANBgNVBAsTBmlQaG9uZTEYMBYGA1UEAxMPd3d3LnNi
d21sLmNuIENBMRAwDgYDVQQpEwdPcGVuVlBOMR0wGwYJKoZIhvcNAQkBFg5URC1M
VEVAWVVOLkNPTTAeFw0xNjA1MTgwNzUxNDFaFw0yNjA1MTYwNzUxNDFaMIGfMQsw
CQYDVQQGEwJDTjESMBAGA1UECBMJR3VhbmdEb25nMRIwEAYDVQQHEwlHdWFuZ1po
b3UxFTATBgNVBAoTDHd3dy5zYndtbC5jbjEPMA0GA1UECxMGaVBob25lMQ8wDQYD
VQQDEwZ1c2VyMDExEDAOBgNVBCkTB09wZW5WUE4xHTAbBgkqhkiG9w0BCQEWDlRE
LUxURUBZVU4uQ09NMIIBIjANBgkqhkiG9w0BAQEFAAOCAQ8AMIIBCgKCAQEAx5BV
JRaV0LYP0XOOEo+gbIHScEeVVJvlx5EePLJUC7FtwqmFQZ3nEB2fry2X8pu2CvK2
9fbarsRjWKtCuDe5k+yUa0B/LoNB9fDWjNgkugx4E1qxN9l377dEches0j8mPBWC
FApV9EzgOhM5y5g3pUouyIfPrAQ+9AKB9CG9GmuBYg8V5pgSraUX6ejp8RSbeZPb
CkEi+3PrQgLoZPjXJl4nEa4wNeQOzSGSiuXv5bgS4i3iJMHsAy6mR7nvmCKa2hpH
0G2P4yV7/vGFYOHJ5yxCWmtpYa9GfQS/xC5/G92uRl6yTaz4p167DiF60kIAawW7
bVlZNlMwLDzbZOUL3QIDAQABo4IBXzCCAVswCQYDVR0TBAIwADAtBglghkgBhvhC
AQ0EIBYeRWFzeS1SU0EgR2VuZXJhdGVkIENlcnRpZmljYXRlMB0GA1UdDgQWBBSe
QEqynUcsO59zQec33dNeABAtAjCB3QYDVR0jBIHVMIHSgBTsdhAUaB+IFzPTbzVa
FsZcpfqk9aGBrqSBqzCBqDELMAkGA1UEBhMCQ04xEjAQBgNVBAgTCUd1YW5nRG9u
ZzESMBAGA1UEBxMJR3VhbmdaaG91MRUwEwYDVQQKEwx3d3cuc2J3bWwuY24xDzAN
BgNVBAsTBmlQaG9uZTEYMBYGA1UEAxMPd3d3LnNid21sLmNuIENBMRAwDgYDVQQp
EwdPcGVuVlBOMR0wGwYJKoZIhvcNAQkBFg5URC1MVEVAWVVOLkNPTYIJAIUA5oTJ
7UKyMBMGA1UdJQQMMAoGCCsGAQUFBwMCMAsGA1UdDwQEAwIHgDANBgkqhkiG9w0B
AQsFAAOCAQEAi8yv1adYaOySL0oRzGbFCbvfyCp/Wvh6R5nBjneXslP9A/76CgDd
Km9VGgf8DDaxbOdoEfG/aQvynrRlF/tNKy9oWrcxF2Hy0/pSVILD7JruJzx8ipCP
xKbht2H9DIVY1tYZjm7v5OIKWgxna9i716AU4BMccIkjdg3nOLzIecpS8s/DTAeU
WLXXqAWdA6waWzKolS74Uq0ID+i0Bzu+aYQXrJhhESlctaOgWinwV4jS99df8y5q
/HXbzQupH6uPNvRTcoIncnz0oDh/dXQQuO0Y8q8BjBgK1NettxGrJ85Qwu0MrcEr
tek9oSgoySNdQ0NPxxYnJdOdC4A+Gunp0g==
-----END CERTIFICATE-----
